target datalayout = "e-m:e-p270:32:32-p271:32:32-p272:64:64-i64:64-i128:128-f80:128-n8:16:32:64-S128"
target triple = "x86_64-pc-linux-gnu"

%struct.lv_color_t = type { i8, i8, i8 }

@opa_saved = internal global i8 0, align 1
@.str.15 = private unnamed_addr constant [56 x i8] c"Hello LVGL! It should be a placeholder: \C5\B1. Looks good?\00", align 1

; Function Attrs: nounwind uwtable
define internal void @add_to_cell(ptr noundef %0, i32 noundef %1, i32 noundef %2) #0 {
  %4 = alloca ptr, align 8
  %5 = alloca i32, align 4
  %6 = alloca i32, align 4
  store ptr %0, ptr %4, align 8, !tbaa !8
  store i32 %1, ptr %5, align 4, !tbaa !3
  store i32 %2, ptr %6, align 4, !tbaa !3
  %7 = load ptr, ptr %4, align 8, !tbaa !8
  %8 = load i32, ptr %5, align 4, !tbaa !3
  %9 = load i32, ptr %6, align 4, !tbaa !3
  call void @lv_obj_set_grid_cell(ptr noundef %7, i32 noundef 1, i32 noundef %8, i32 noundef 1, i32 noundef 1, i32 noundef %9, i32 noundef 1)
  ret void
}

; Function Attrs: nounwind uwtable
define internal ptr @text_obj_create(ptr noundef %0, i32 noundef %1, i32 noundef %2) #0 {
  %4 = alloca ptr, align 8
  %5 = alloca i32, align 4
  %6 = alloca i32, align 4
  %7 = alloca ptr, align 8
  store ptr %0, ptr %4, align 8, !tbaa !8
  store i32 %1, ptr %5, align 4, !tbaa !3
  store i32 %2, ptr %6, align 4, !tbaa !3
  call void @llvm.lifetime.start.p0(i64 8, ptr %7) #5
  %8 = load ptr, ptr %4, align 8, !tbaa !8
  %9 = call ptr @lv_label_create(ptr noundef %8)
  store ptr %9, ptr %7, align 8, !tbaa !8
  %10 = load ptr, ptr %7, align 8, !tbaa !8
  call void @lv_obj_remove_style_all(ptr noundef %10)
  %11 = load ptr, ptr %7, align 8, !tbaa !8
  call void @lv_label_set_text(ptr noundef %11, ptr noundef @.str.15)
  %12 = load ptr, ptr %7, align 8, !tbaa !8
  %13 = load i8, ptr @opa_saved, align 1, !tbaa !7
  call void @lv_obj_set_style_opa(ptr noundef %12, i8 noundef zeroext %13, i32 noundef 0)
  %14 = load ptr, ptr %7, align 8, !tbaa !8
  %15 = load i32, ptr %5, align 4, !tbaa !3
  %16 = load i32, ptr %6, align 4, !tbaa !3
  call void @add_to_cell(ptr noundef %14, i32 noundef %15, i32 noundef %16)
  %17 = load ptr, ptr %7, align 8, !tbaa !8
  call void @llvm.lifetime.end.p0(i64 8, ptr %7) #5
  ret ptr %17
}

; Function Attrs: nounwind uwtable
define internal void @text_cb(ptr noundef %0) #0 {
  %2 = alloca ptr, align 8
  %3 = alloca ptr, align 8
  %4 = alloca %struct.lv_color_t, align 1
  %5 = alloca i24, align 4
  %6 = alloca %struct.lv_color_t, align 1
  %7 = alloca i24, align 4
  store ptr %0, ptr %2, align 8, !tbaa !8
  call void @llvm.lifetime.start.p0(i64 8, ptr %3) #5
  %8 = load ptr, ptr %2, align 8, !tbaa !8
  %9 = call ptr @text_obj_create(ptr noundef %8, i32 noundef 3, i32 noundef 0)
  store ptr %9, ptr %3, align 8, !tbaa !8
  %10 = load ptr, ptr %2, align 8, !tbaa !8
  %11 = call ptr @text_obj_create(ptr noundef %10, i32 noundef 3, i32 noundef 1)
  store ptr %11, ptr %3, align 8, !tbaa !8
  %12 = load ptr, ptr %3, align 8, !tbaa !8
  %13 = call i24 @lv_color_hex3(i32 noundef 4080)
  store i24 %13, ptr %4, align 1
  call void @llvm.memcpy.p0.p0.i64(ptr align 4 %5, ptr align 1 %4, i64 3, i1 false)
  %14 = load i24, ptr %5, align 4
  call void @lv_obj_set_style_text_color(ptr noundef %12, i24 %14, i32 noundef 0)
  %15 = load ptr, ptr %2, align 8, !tbaa !8
  %16 = call ptr @text_obj_create(ptr noundef %15, i32 noundef 3, i32 noundef 2)
  store ptr %16, ptr %3, align 8, !tbaa !8
  %17 = load ptr, ptr %3, align 8, !tbaa !8
  call void @lv_label_set_text_selection_start(ptr noundef %17, i32 noundef 12)
  %18 = load ptr, ptr %3, align 8, !tbaa !8
  call void @lv_label_set_text_selection_end(ptr noundef %18, i32 noundef 21)
  %19 = load ptr, ptr %3, align 8, !tbaa !8
  %20 = call i24 @lv_color_hex3(i32 noundef 255)
  store i24 %20, ptr %6, align 1
  call void @llvm.memcpy.p0.p0.i64(ptr align 4 %7, ptr align 1 %6, i64 3, i1 false)
  %21 = load i24, ptr %7, align 4
  call void @lv_obj_set_style_bg_color(ptr noundef %19, i24 %21, i32 noundef 262144)
  %22 = load ptr, ptr %2, align 8, !tbaa !8
  %23 = call ptr @text_obj_create(ptr noundef %22, i32 noundef 3, i32 noundef 3)
  store ptr %23, ptr %3, align 8, !tbaa !8
  %24 = load ptr, ptr %3, align 8, !tbaa !8
  call void @lv_obj_set_style_text_decor(ptr noundef %24, i32 noundef 1, i32 noundef 0)
  %25 = load ptr, ptr %2, align 8, !tbaa !8
  %26 = call ptr @text_obj_create(ptr noundef %25, i32 noundef 3, i32 noundef 4)
  store ptr %26, ptr %3, align 8, !tbaa !8
  %27 = load ptr, ptr %3, align 8, !tbaa !8
  call void @lv_obj_set_style_text_decor(ptr noundef %27, i32 noundef 2, i32 noundef 0)
  %28 = load ptr, ptr %2, align 8, !tbaa !8
  %29 = call ptr @text_obj_create(ptr noundef %28, i32 noundef 3, i32 noundef 5)
  store ptr %29, ptr %3, align 8, !tbaa !8
  %30 = load ptr, ptr %3, align 8, !tbaa !8
  call void @lv_obj_set_style_text_decor(ptr noundef %30, i32 noundef 3, i32 noundef 0)
  call void @llvm.lifetime.end.p0(i64 8, ptr %3) #5
  ret void
}