; Function Attrs: nounwind uwtable
define internal void @text_cb(ptr noundef %0) #0 {
  %2 = tail call ptr @lv_label_create(ptr noundef %0) #6
  tail call void @lv_obj_remove_style_all(ptr noundef %2) #6
  tail call void @lv_label_set_text(ptr noundef %2, ptr noundef nonnull @.str.15) #6
  %3 = load i8, ptr @opa_saved, align 1, !tbaa !3
  tail call void @lv_obj_set_style_opa(ptr noundef %2, i8 noundef zeroext %3, i32 noundef 0) #6
  tail call void @lv_obj_set_grid_cell(ptr noundef %2, i32 noundef 1, i32 noundef 3, i32 noundef 1, i32 noundef 1, i32 noundef range(i32 -8, 21) 0, i32 noundef 1) #6
  %4 = tail call ptr @lv_label_create(ptr noundef %0) #6
  tail call void @lv_obj_remove_style_all(ptr noundef %4) #6
  tail call void @lv_label_set_text(ptr noundef %4, ptr noundef nonnull @.str.15) #6
  %5 = load i8, ptr @opa_saved, align 1, !tbaa !3
  tail call void @lv_obj_set_style_opa(ptr noundef %4, i8 noundef zeroext %5, i32 noundef 0) #6
  tail call void @lv_obj_set_grid_cell(ptr noundef %4, i32 noundef 1, i32 noundef 3, i32 noundef 1, i32 noundef 1, i32 noundef range(i32 -8, 21) 1, i32 noundef 1) #6
  %6 = tail call i24 @lv_color_hex3(i32 noundef 4080) #6
  tail call void @lv_obj_set_style_text_color(ptr noundef %4, i24 %6, i32 noundef 0) #6
  %7 = tail call ptr @lv_label_create(ptr noundef %0) #6
  tail call void @lv_obj_remove_style_all(ptr noundef %7) #6
  tail call void @lv_label_set_text(ptr noundef %7, ptr noundef nonnull @.str.15) #6
  %8 = load i8, ptr @opa_saved, align 1, !tbaa !3
  tail call void @lv_obj_set_style_opa(ptr noundef %7, i8 noundef zeroext %8, i32 noundef 0) #6
  tail call void @lv_obj_set_grid_cell(ptr noundef %7, i32 noundef 1, i32 noundef 3, i32 noundef 1, i32 noundef 1, i32 noundef range(i32 -8, 21) 2, i32 noundef 1) #6
  tail call void @lv_label_set_text_selection_start(ptr noundef %7, i32 noundef 12) #6
  tail call void @lv_label_set_text_selection_end(ptr noundef %7, i32 noundef 21) #6
  %9 = tail call i24 @lv_color_hex3(i32 noundef 255) #6
  tail call void @lv_obj_set_style_bg_color(ptr noundef %7, i24 %9, i32 noundef 262144) #6
  %10 = tail call ptr @lv_label_create(ptr noundef %0) #6
  tail call void @lv_obj_remove_style_all(ptr noundef %10) #6
  tail call void @lv_label_set_text(ptr noundef %10, ptr noundef nonnull @.str.15) #6
  %11 = load i8, ptr @opa_saved, align 1, !tbaa !3
  tail call void @lv_obj_set_style_opa(ptr noundef %10, i8 noundef zeroext %11, i32 noundef 0) #6
  tail call void @lv_obj_set_grid_cell(ptr noundef %10, i32 noundef 1, i32 noundef 3, i32 noundef 1, i32 noundef 1, i32 noundef range(i32 -8, 21) 3, i32 noundef 1) #6
  tail call void @lv_obj_set_style_text_decor(ptr noundef %10, i32 noundef 1, i32 noundef 0) #6
  %12 = tail call ptr @lv_label_create(ptr noundef %0) #6
  tail call void @lv_obj_remove_style_all(ptr noundef %12) #6
  tail call void @lv_label_set_text(ptr noundef %12, ptr noundef nonnull @.str.15) #6
  %13 = load i8, ptr @opa_saved, align 1, !tbaa !3
  tail call void @lv_obj_set_style_opa(ptr noundef %12, i8 noundef zeroext %13, i32 noundef 0) #6
  tail call void @lv_obj_set_grid_cell(ptr noundef %12, i32 noundef 1, i32 noundef 3, i32 noundef 1, i32 noundef 1, i32 noundef range(i32 -8, 21) 4, i32 noundef 1) #6
  tail call void @lv_obj_set_style_text_decor(ptr noundef %12, i32 noundef 2, i32 noundef 0) #6
  %14 = tail call ptr @lv_label_create(ptr noundef %0) #6
  tail call void @lv_obj_remove_style_all(ptr noundef %14) #6
  tail call void @lv_label_set_text(ptr noundef %14, ptr noundef nonnull @.str.15) #6
  %15 = load i8, ptr @opa_saved, align 1, !tbaa !3
  tail call void @lv_obj_set_style_opa(ptr noundef %14, i8 noundef zeroext %15, i32 noundef 0) #6
  tail call void @lv_obj_set_grid_cell(ptr noundef %14, i32 noundef 1, i32 noundef 3, i32 noundef 1, i32 noundef 1, i32 noundef range(i32 -8, 21) 5, i32 noundef 1) #6
  tail call void @lv_obj_set_style_text_decor(ptr noundef %14, i32 noundef 3, i32 noundef 0) #6
  ret void
}